(lp0
S'Clean'
p1
ag1
aS'Work'
p2
ag1
aS'Run'
p3
ag3
ag1
ag1
ag1
ag3
ag1
ag1
ag1
ag2
ag3
ag3
ag3
ag2
ag2
ag1
ag3
ag1
ag3
ag2
ag1
ag1
ag3
ag2
ag3
ag3
ag2
ag3
ag2
ag3
ag2
ag1
ag3
ag2
ag2
ag1
ag2
ag3
ag2
ag1
ag3
ag1
ag1
ag2
ag3
ag2
ag2
ag3
ag2
ag3
ag1
ag1
ag2
ag2
ag2
ag3
ag3
ag1
ag3
ag1
ag3
ag1
ag2
ag3
ag3
ag3
ag3
ag2
ag1
ag3
ag2
ag2
ag3
ag3
ag2
ag2
ag3
ag2
ag3
ag3
ag2
ag1
ag2
ag2
ag3
ag1
ag2
ag3
ag2
ag3
ag2
ag1
ag3
ag1
ag1
ag2
ag2
ag2
ag3
ag2
ag1
ag3
ag1
ag2
ag2
ag2
ag3
ag1
ag3
ag2
ag2
ag3
ag3
ag2
ag1
ag3
ag1
ag3
ag1
ag1
ag2
ag1
ag1
ag2
ag1
ag3
ag2
ag2
ag2
ag2
ag3
ag3
ag1
ag3
ag2
ag1
ag2
ag2
ag3
ag1
ag2
ag3
ag3
ag3
ag3
ag1
ag3
ag3
ag3
ag3
ag3
ag3
ag3
ag3
ag2
ag3
ag3
ag1
ag2
ag1
ag1
ag3
ag3
ag2
ag1
ag2
ag2
ag3
ag3
ag1
ag3
ag2
ag2
ag2
ag3
ag3
ag1
ag2
ag1
ag3
ag3
ag1
ag2
ag1
ag1
ag2
ag3
ag3
ag3
ag2
ag2
ag3
ag1
ag2
ag3
ag2
ag2
ag3
ag2
ag3
ag3
ag2
ag3
ag1
ag3
ag1
ag1
ag1
ag1
ag2
ag3
ag3
ag2
ag3
ag2
ag3
ag3
ag3
ag3
ag3
ag3
ag3
ag3
ag1
ag3
ag1
ag1
ag3
ag3
ag1
ag1
ag1
ag3
ag2
ag2
ag2
ag3
ag1
ag3
ag2
ag1
ag3
ag2
ag1
ag2
ag2
ag2
ag3
ag1
ag1
ag3
ag1
ag2
ag1
ag3
ag2
ag3
ag2
ag2
ag2
ag1
ag2
ag2
ag2
ag1
ag2
ag2
ag3
ag1
ag3
ag2
ag3
ag3
ag3
ag3
ag3
ag3
ag1
ag1
ag1
ag1
ag1
ag1
ag1
ag3
ag3
ag2
ag1
ag2
ag2
ag3
ag3
ag3
ag1
ag1
ag3
ag1
ag1
ag3
ag3
ag2
ag2
ag1
ag1
ag2
ag3
ag1
ag3
ag1
ag3
ag3
ag3
ag3
ag3
ag1
ag2
ag3
ag1
ag3
ag3
ag1
ag1
ag1
ag3
ag3
ag1
ag1
ag1
ag1
ag3
ag2
ag3
ag3
ag3
ag1
ag3
ag3
ag3
ag3
ag2
ag1
ag2
ag3
ag2
ag1
ag1
ag3
ag2
ag2
ag3
ag3
ag2
ag1
ag2
ag3
ag3
ag1
ag1
ag3
ag3
ag3
ag3
ag1
ag3
ag3
ag3
ag3
ag2
ag3
ag3
ag2
ag2
ag2
ag1
ag1
ag2
ag3
ag3
ag3
ag3
ag2
ag3
ag3
ag2
ag2
ag3
ag2
ag1
ag3
ag3
ag2
ag2
ag3
ag3
ag1
ag3
ag2
ag2
ag3
ag3
ag3
ag3
ag3
ag1
ag3
ag1
ag2
ag2
ag1
ag1
ag1
ag1
ag3
ag3
ag3
ag2
ag2
ag1
ag1
ag1
ag1
ag1
ag1
ag3
ag1
ag2
ag3
ag1
ag3
ag1
ag1
ag3
ag2
ag3
ag2
ag2
ag1
ag3
ag3
ag1
ag3
ag2
ag2
ag2
ag1
ag2
ag2
ag3
ag1
ag1
ag3
ag2
ag2
ag3
ag1
ag2
ag2
ag3
ag2
ag1
ag3
ag2
ag3
ag2
ag3
ag3
ag2
ag2
ag3
ag3
ag2
ag3
ag2
ag1
ag2
ag1
ag2
ag2
ag3
ag3
ag3
ag1
ag1
ag1
ag2
ag2
ag2
ag1
ag2
ag1
ag1
ag3
ag3
ag2
ag1
ag2
ag3
ag3
ag1
ag3
ag3
ag3
ag2
ag2
ag3
ag3
ag2
ag2
ag2
ag1
ag1
ag2
ag3
ag1
ag3
ag2
ag3
ag3
ag2
ag2
ag2
ag2
ag3
ag3
ag1
ag3
ag2
ag2
ag2
ag3
ag2
ag3
ag3
ag1
ag1
ag3
ag1
ag1
ag1
ag1
ag1
ag2
ag3
ag3
ag3
ag3
ag2
ag1
ag2
ag3
ag3
ag2
ag3
ag2
ag3
ag2
ag1
ag1
ag2
ag3
ag2
ag3
ag2
ag2
ag2
ag2
ag3
ag1
ag1
ag1
ag1
ag3
ag2
ag3
ag3
ag1
ag3
ag1
ag1
ag1
ag1
ag2
ag2
ag3
ag3
ag1
ag2
ag3
ag3
ag2
ag3
ag2
ag3
ag1
ag3
ag3
ag2
ag2
ag3
ag1
ag3
ag2
ag3
ag2
ag3
ag2
ag3
ag2
ag2
ag3
ag2
ag2
ag3
ag3
ag3
ag2
ag3
ag2
ag2
ag3
ag3
ag3
ag3
ag2
ag2
ag2
ag2
ag3
ag3
ag3
ag3
ag1
ag1
ag1
ag2
ag3
ag2
ag2
ag1
ag3
ag3
ag3
ag3
ag1
ag1
ag3
ag2
ag2
ag1
ag2
ag1
ag1
ag1
ag3
ag3
ag3
ag2
ag3
ag3
ag2
ag3
ag2
ag2
ag3
ag2
ag3
ag2
ag1
ag3
ag3
ag3
ag1
ag1
ag1
ag2
ag3
ag2
ag3
ag3
ag2
ag1
ag3
ag2
ag2
ag3
ag2
ag1
ag1
ag1
ag1
ag1
ag1
ag3
ag3
ag2
ag2
ag3
ag2
ag2
ag2
ag2
ag2
ag2
ag3
ag2
ag2
ag3
ag3
ag1
ag3
ag1
ag1
ag3
ag3
ag3
ag2
ag3
ag3
ag3
ag1
ag2
ag3
ag2
ag2
ag3
ag2
ag3
ag2
ag3
ag3
ag3
ag2
ag2
ag1
ag1
ag1
ag2
ag3
ag2
ag3
ag3
ag2
ag3
ag2
ag3
ag3
ag2
ag3
ag3
ag3
ag1
ag3
ag2
ag3
ag2
ag2
ag3
ag1
ag1
ag1
ag1
ag3
ag1
ag1
ag1
ag2
ag1
ag1
ag1
ag1
ag1
ag2
ag1
ag2
ag2
ag1
ag2
ag3
ag3
ag1
ag3
ag3
ag1
ag1
ag3
ag2
ag3
ag3
ag2
ag3
ag3
ag2
ag2
ag2
ag2
ag3
ag3
ag3
ag1
ag2
ag2
ag3
ag3
ag2
ag2
ag3
ag2
ag3
ag3
ag1
ag3
ag1
ag3
ag1
ag1
ag3
ag2
ag3
ag2
ag2
ag1
ag1
ag2
ag3
ag1
ag2
ag2
ag2
ag2
ag1
ag3
ag3
ag3
ag2
ag1
ag2
ag1
ag3
ag1
ag3
ag1
ag1
ag3
ag2
ag2
ag1
ag1
ag2
ag3
ag3
ag2
ag3
ag1
ag1
ag3
ag2
ag3
ag1
ag3
ag2
ag2
ag3
ag3
ag3
ag3
ag2
ag2
ag1
ag1
ag3
ag3
ag1
ag3
ag3
ag2
ag1
ag2
ag3
ag3
ag3
ag3
ag2
ag2
ag2
ag2
ag2
ag2
ag3
ag1
ag2
ag3
ag3
ag2
ag2
ag3
ag2
ag3
ag3
ag1
ag1
ag1
ag2
ag3
ag3
ag1
ag2
ag3
ag2
ag2
ag3
ag1
ag3
ag2
ag2
ag2
ag2
ag3
ag3
ag2
ag1
ag3
ag3
ag3
ag2
ag3
ag2
ag3
ag3
ag3
ag3
ag1
ag3
ag1
ag1
ag3
ag3
ag1
ag1
ag1
ag1
ag2
ag1
ag2
ag1
ag1
ag2
ag2
ag2
ag3
ag2
ag3
ag2
ag2
ag1
ag1
ag3
ag2
ag1
ag1
ag1
ag3
ag1
ag3
ag2
ag2
ag3
ag3
ag3
ag2
ag2
ag2
ag3
ag2
ag3
ag3
ag3
ag3
ag2
ag2
ag2
ag3
ag3
ag2
ag2
ag1
ag1
ag2
ag1
ag3
ag1
ag3
ag1
ag2
ag3
ag3
ag2
ag2
ag1
ag1
ag3
ag2
ag3
ag3
ag3
ag3
ag3
ag3
ag2
ag2
ag3
ag1
ag3
ag3
ag2
ag2
ag3
ag2
ag1
ag1
ag3
ag1
ag2
ag1
ag2
ag3
ag1
ag1
ag3
ag2
ag3
ag3
ag2
ag1
ag1
ag1
ag3
ag3
ag3
ag3
ag3
ag3
ag2
ag2
ag3
ag1
ag1
ag3
ag3
ag3
ag1
ag2
ag1
ag1
ag2
ag2
ag3
ag3
ag3
ag3
ag2
ag3
ag3
ag2
ag3
ag3
ag2
ag3
ag1
ag2
ag3
ag2
ag2
ag3
ag2
ag1
ag3
ag3
ag2
ag1
ag1
ag2
ag1
ag1
ag2
ag3
ag3
ag2
ag1
ag3
ag3
ag2
ag2
ag3
ag2
ag2
ag1
ag2
ag1
ag3
ag2
ag1
ag2
ag3
ag3
ag3
ag3
ag1
ag1
ag1
ag1
ag1
ag2
ag3
ag3
ag1
ag2
ag3
ag2
ag1
ag2
ag1
ag2
ag1
ag3
ag1
ag3
ag2
ag3
ag3
ag3
ag3
ag3
ag3
ag2
ag1
ag3
ag3
ag3
ag1
ag2
ag3
ag2
ag3
ag2
ag3
ag3
ag2
ag2
ag3
ag3
ag3
ag1
ag3
ag1
ag2
ag3
ag2
ag3
ag3
ag1
ag1
ag3
ag2
ag2
ag3
ag1
ag3
ag3
ag1
ag1
ag2
ag3
ag1
ag2
ag3
ag3
ag2
ag3
ag2
ag3
ag2
ag2
ag2
ag2
ag2
ag2
ag1
ag1
ag2
ag2
ag2
ag2
ag2
ag2
ag3
ag3
ag2
ag3
ag2
ag1
ag2
ag1
ag1
ag2
ag3
ag2
ag1
ag3
ag3
ag3
ag1
ag3
ag1
ag2
ag3
ag2
ag2
ag3
ag2
ag2
ag3
ag1
ag3
ag1
ag2
ag2
ag3
ag3
ag3
ag1
ag3
ag3
ag3
ag1
ag3
ag1
ag2
ag1
ag3
ag3
ag3
ag3
ag2
ag3
ag1
ag3
ag3
ag3
ag3
ag3
ag2
ag3
ag3
ag2
ag1
ag3
ag2
ag1
ag1
ag3
ag3
ag3
ag3
ag2
ag1
ag1
ag3
ag1
ag1
ag3
ag3
ag2
ag2
ag2
ag3
ag3
ag2
ag3
ag3
ag1
ag1
ag3
ag1
ag1
ag3
ag3
ag3
ag3
ag3
ag3
ag3
ag1
ag2
ag2
ag3
ag3
ag3
ag3
ag1
ag2
ag2
ag1
ag3
ag3
ag3
ag3
ag1
ag1
ag2
ag2
ag3
ag3
ag1
ag3
ag1
ag2
ag2
ag2
ag2
ag2
ag3
ag1
ag3
ag2
ag2
ag3
ag3
ag1
ag2
ag2
ag3
ag2
ag3
ag2
ag3
ag2
ag2
ag2
ag1
ag1
ag3
ag1
ag2
ag3
ag2
ag3
ag1
ag3
ag3
ag2
ag2
ag1
ag1
ag1
ag1
ag3
ag2
ag1
ag2
ag3
ag3
ag3
ag3
ag3
ag3
ag3
ag3
ag2
ag2
ag3
ag3
ag3
ag2
ag3
ag3
ag2
ag3
ag2
ag3
ag3
ag1
ag2
ag3
ag2
ag3
ag2
ag2
ag1
ag3
ag2
ag2
ag1
ag1
ag1
ag2
ag3
ag3
ag3
ag3
ag3
ag2
ag2
ag2
ag2
ag2
ag3
ag1
ag1
ag2
ag1
ag1
ag2
ag3
ag2
ag2
ag3
ag3
ag1
ag3
ag2
ag3
ag2
ag2
ag2
ag3
ag2
ag2
ag3
ag3
ag2
ag2
ag3
ag1
ag2
ag3
ag1
ag3
ag1
ag1
ag1
ag1
ag1
ag1
ag1
ag1
ag1
ag1
ag1
ag3
ag2
ag3
ag1
ag3
ag2
ag3
ag3
ag1
ag2
ag1
ag3
ag2
ag3
ag1
ag3
ag3
ag2
ag3
ag3
ag1
ag3
ag2
ag1
ag3
ag1
ag3
ag2
ag3
ag1
ag3
ag1
ag1
ag1
ag1
ag1
ag3
ag1
ag2
ag2
ag3
ag3
ag2
ag1
ag3
ag1
ag3
ag1
ag3
ag3
ag2
ag3
ag2
ag3
ag3
ag2
ag1
ag1
ag1
ag3
ag2
ag1
ag1
ag1
ag3
ag3
ag3
ag2
ag3
ag3
ag2
ag2
ag3
ag2
ag3
ag1
ag1
ag3
ag1
ag1
ag3
ag1
ag1
ag1
ag2
ag2
ag2
ag3
ag2
ag3
ag3
ag1
ag2
ag3
ag2
ag2
ag3
ag1
ag1
ag1
ag1
ag2
ag3
ag3
ag1
ag3
ag3
ag1
ag1
ag3
ag1
ag2
ag3
ag2
ag3
ag2
ag3
ag3
ag3
ag2
ag3
ag3
ag3
ag3
ag3
ag1
ag1
ag1
ag1
ag3
ag3
ag1
ag3
ag3
ag2
ag3
ag3
ag2
ag3
ag3
ag2
ag2
ag2
ag2
ag2
ag3
ag3
ag2
ag2
ag3
ag3
ag3
ag3
ag2
ag3
ag2
ag3
ag2
ag1
ag3
ag2
ag3
ag2
ag3
ag2
ag2
ag1
ag2
ag2
ag2
ag3
ag1
ag3
ag3
ag2
ag1
ag3
ag3
ag2
ag2
ag2
ag1
ag3
ag2
ag1
ag1
ag1
ag1
ag1
ag3
ag1
ag3
ag1
ag3
ag2
ag1
ag1
ag1
ag1
ag3
ag3
ag2
ag1
ag2
ag3
ag3
ag2
ag3
ag1
ag2
ag1
ag3
ag1
ag1
ag3
ag2
ag2
ag2
ag1
ag1
ag3
ag1
ag2
ag3
ag2
ag2
ag3
ag2
ag2
ag1
ag1
ag3
ag3
ag1
ag1
ag2
ag2
ag3
ag3
ag3
ag2
ag3
ag2
ag1
ag3
ag2
ag1
ag1
ag1
ag2
ag3
ag2
ag1
ag3
ag3
ag3
ag2
ag1
ag3
ag3
ag1
ag3
ag1
ag3
ag2
ag2
ag3
ag2
ag2
ag2
ag3
ag3
ag2
ag2
ag2
ag2
ag2
ag3
ag1
ag1
ag2
ag2
ag3
ag3
ag3
ag2
ag2
ag1
ag1
ag1
ag3
ag1
ag2
ag3
ag2
ag2
ag3
ag3
ag2
ag2
ag3
ag1
ag2
ag1
ag1
ag1
ag3
ag2
ag2
ag3
ag3
ag3
ag3
ag1
ag2
ag2
ag1
ag1
ag1
ag3
ag2
ag3
ag3
ag1
ag2
ag2
ag3
ag3
ag2
ag2
ag1
ag1
ag1
ag3
ag3
ag2
ag1
ag1
ag3
ag2
ag3
ag1
ag3
ag3
ag2
ag3
ag2
ag2
ag3
ag2
ag3
ag2
ag3
ag3
ag2
ag1
ag3
ag2
ag1
ag1
ag3
ag2
ag1
ag3
ag3
ag3
ag3
ag1
ag3
ag2
ag3
ag1
ag3
ag2
ag3
ag2
ag3
ag1
ag3
ag3
ag2
ag3
ag3
ag2
ag3
ag2
ag2
ag3
ag3
ag2
ag1
ag3
ag3
ag3
ag3
ag3
ag3
ag3
ag2
ag1
ag1
ag1
ag1
ag1
ag1
ag1
ag1
ag3
ag1
ag3
ag1
ag1
ag1
ag2
ag2
ag3
ag3
ag3
ag2
ag1
ag1
ag1
ag1
ag2
ag2
ag2
ag3
ag2
ag2
ag2
ag3
ag3
ag3
ag3
ag2
ag1
ag2
ag2
ag3
ag2
ag3
ag2
ag3
ag2
ag2
ag1
ag1
ag2
ag1
ag2
ag1
ag3
ag1
ag1
ag2
ag1
ag1
ag3
ag2
ag1
ag3
ag2
ag2
ag2
ag2
ag3
ag1
ag3
ag2
ag2
ag2
ag1
ag1
ag2
ag3
ag3
ag3
ag2
ag1
ag3
ag3
ag2
ag1
ag3
ag3
ag3
ag2
ag2
ag1
ag1
ag3
ag1
ag2
ag2
ag2
ag1
ag1
ag2
ag1
ag3
ag2
ag3
ag3
ag3
ag3
ag3
ag2
ag3
ag3
ag2
ag1
ag1
ag2
ag3
ag1
ag3
ag3
ag2
ag2
ag3
ag3
ag1
ag2
ag2
ag3
ag3
ag2
ag3
ag2
ag1
ag3
ag1
ag1
ag3
ag2
ag1
ag1
ag2
ag3
ag2
ag3
ag3
ag2
ag1
ag1
ag1
ag3
ag2
ag3
ag1
ag2
ag2
ag2
ag1
ag3
ag2
ag1
ag1
ag1
ag1
ag1
ag1
ag2
ag3
ag3
ag1
ag3
ag3
ag2
ag2
ag3
ag3
ag3
ag2
ag3
ag3
ag3
ag3
ag3
ag1
ag1
ag2
ag3
ag2
ag2
ag3
ag2
ag2
ag3
ag1
ag2
ag3
ag3
ag3
ag3
ag2
ag2
ag3
ag3
ag3
ag3
ag2
ag3
ag3
ag3
ag2
ag3
ag1
ag2
ag3
ag2
ag3
ag1
ag3
ag2
ag2
ag1
ag3
ag3
ag2
ag2
ag2
ag2
ag2
ag2
ag2
ag2
ag3
ag3
ag2
ag1
ag3
ag3
ag1
ag3
ag3
ag3
ag2
ag1
ag2
ag3
ag1
ag3
ag3
ag1
ag1
ag1
ag3
ag1
ag2
ag1
ag2
ag1
ag3
ag3
ag1
ag2
ag2
ag3
ag1
ag2
ag1
ag3
ag3
ag3
ag3
ag2
ag3
ag3
ag3
ag3
ag3
ag1
ag1
ag3
ag3
ag2
ag2
ag3
ag2
ag3
ag2
ag1
ag3
ag1
ag2
ag1
ag3
ag3
ag3
ag3
ag2
ag3
ag2
ag2
ag2
ag3
ag1
ag1
ag2
ag1
ag2
ag3
ag3
ag2
ag3
ag3
ag3
ag3
ag1
ag3
ag3
ag2
ag3
ag1
ag1
ag1
ag1
ag3
ag2
ag3
ag3
ag3
ag3
ag3
ag3
ag2
ag3
ag3
ag3
ag2
ag2
ag3
ag2
ag3
ag1
ag1
ag2
ag3
ag2
ag2
ag2
ag1
ag3
ag2
ag3
ag3
ag1
ag1
ag2
ag2
ag3
ag1
ag1
ag3
ag2
ag2
ag1
ag1
ag1
ag1
ag2
ag1
ag1
ag1
ag3
ag1
ag3
ag3
ag2
ag2
ag1
ag3
ag1
ag2
ag1
ag3
ag1
ag1
ag3
ag3
ag2
ag3
ag1
ag3
ag3
ag3
ag2
ag1
ag3
ag2
ag1
ag1
ag1
ag3
ag1
ag1
ag1
ag2
ag2
ag2
ag1
ag1
ag1
ag3
ag2
ag3
ag2
ag2
ag2
ag2
ag2
ag3
ag1
ag1
ag3
ag2
ag1
ag3
ag2
ag2
ag3
ag3
ag3
ag2
ag3
ag3
ag1
ag2
ag2
ag3
ag3
ag1
ag2
ag2
ag3
ag1
ag1
ag1
ag1
ag2
ag2
ag2
ag2
ag1
ag3
ag3
ag2
ag2
ag1
ag3
ag2
ag2
ag2
ag2
ag2
ag2
ag1
ag2
ag1
ag2
ag2
ag3
ag2
ag3
ag1
ag3
ag3
ag1
ag2
ag1
ag1
ag1
ag1
ag1
ag3
ag2
ag2
ag2
ag1
ag3
ag2
ag2
ag3
ag1
ag3
ag1
ag3
ag3
ag1
ag2
ag2
ag2
ag3
ag3
ag1
ag1
ag1
ag1
ag1
ag1
ag3
ag2
ag2
ag1
ag3
ag2
ag1
ag1
ag2
ag3
ag1
ag1
ag1
ag1
ag3
ag3
ag3
ag2
ag1
ag1
ag3
ag1
ag3
ag1
ag1
ag1
ag2
ag3
ag2
ag1
ag2
ag3
ag3
ag3
ag2
ag1
ag1
ag1
ag1
ag2
ag1
ag1
ag1
ag3
ag1
ag2
ag3
ag3
ag3
ag1
ag1
ag2
ag1
ag1
ag3
ag1
ag1
ag1
ag3
ag2
ag2
ag2
ag3
ag1
ag3
ag2
ag2
ag2
ag3
ag3
ag3
ag3
ag1
ag1
ag3
ag1
ag1
ag3
ag3
ag2
ag3
ag3
ag2
ag3
ag3
ag2
ag3
ag3
ag3
ag2
ag1
ag3
ag2
ag1
ag3
ag1
ag1
ag1
ag1
ag1
ag1
ag2
ag3
ag3
ag3
ag1
ag1
ag1
ag3
ag3
ag2
ag1
ag1
ag2
ag2
ag3
ag1
ag1
ag1
ag1
ag1
ag2
ag3
ag3
ag3
ag3
ag2
ag1
ag3
ag2
ag1
ag1
ag3
ag3
ag3
ag1
ag2
ag3
ag3
ag3
ag3
ag3
ag2
ag1
ag3
ag1
ag3
a.