(lp0
V\u0430
p1
aV\u0431
p2
aV\u0432
p3
aV\u0433
p4
aV\u0434
p5
aV\u0435
p6
aV\u0436
p7
aV\u0437
p8
aV\u0438
p9
aV\u0439
p10
aV\u043a
p11
aV\u043b
p12
aV\u043c
p13
aV\u043d
p14
aV\u043e
p15
aV\u043f
p16
aV\u0440
p17
aV\u0441
p18
aV\u0442
p19
aV\u0443
p20
aV\u0444
p21
aV\u0445
p22
aV\u0446
p23
aV\u0447
p24
aV\u0448
p25
aV\u0449
p26
aV\u044a
p27
aV\u044b
p28
aV\u044c
p29
aV\u044d
p30
aV\u044e
p31
aV\u044f
p32
aV\u0451
p33
a.1
p34
a.