cnumpy.core.multiarray
_reconstruct
p0
(cnumpy
ndarray
p1
(I0
tp2
S'b'
p3
tp4
Rp5
(I1
(I800
tp6
cnumpy
dtype
p7
(S'S1'
p8
I0
I1
tp9
Rp10
(I3
S'|'
p11
NNNI1
I1
I0
tp12
bI00
S'01000100011101000100000100011011100001100000011110111000110001101011000010010111010011101001011011010100010011001001101000011000110110110001010100101000011010011000000100101001011110110000011011010001011100000010001110011010111101000100001001001000100000110001100001000001010000000001011001001011111100100010000110011001110001111100010000001000100011011000010011010011101100000101100010011010001010011000101100100001001000011100000000000010101011111110011101100010000000101011011001101000010010110010010101001011101000100000100001000000010101101000110001110010100100001100110000110010100100111001000011110110100000000010000011001100000010000101110100010011100000001001100101000001000111101001100011101010011000011011000111110100010100100101001001010000001111000000001001000100110110001110101010001010'
p13
tp14
b.